; Function Attrs: mustprogress nofree norecurse nosync nounwind memory(argmem: readwrite) uwtable
define internal void @_ZN2cvL11randBits_8uEPhiPmPKNS_3VecIiLi2EEEPvb(ptr nocapture noundef writeonly %0, i32 noundef %1, ptr nocapture noundef %2, ptr nocapture noundef readonly %3, ptr nocapture readnone %4, i1 noundef zeroext %5) #7 {
  %7 = load i64, ptr %2, align 8
  %.not101108.i = icmp slt i32 %1, 4
  br i1 %5, label %.preheader.i, label %.preheader102.i

.preheader102.i:                                  ; preds = %6
  br i1 %.not101108.i, label %.loopexit.i, label %.lr.ph.preheader.i

.lr.ph.preheader.i:                               ; preds = %.preheader102.i
  %8 = add nsw i32 %1, -4
  %9 = zext nneg i32 %8 to i64
  br label %.lr.ph.i

.preheader.i:                                     ; preds = %6
  br i1 %.not101108.i, label %.loopexit.i, label %.lr.ph111.preheader.i

.lr.ph111.preheader.i:                            ; preds = %.preheader.i
  %10 = add nsw i32 %1, -4
  %11 = zext nneg i32 %10 to i64
  br label %.lr.ph111.i

.lr.ph.i:                                         ; preds = %.lr.ph.i, %.lr.ph.preheader.i
  %indvars.iv.i = phi i64 [ 0, %.lr.ph.preheader.i ], [ %indvars.iv.next.i, %.lr.ph.i ]
  %.0106.i = phi i64 [ %7, %.lr.ph.preheader.i ], [ %58, %.lr.ph.i ]
  %12 = and i64 %.0106.i, 4294967295
  %13 = mul nuw i64 %12, 4164903690
  %14 = lshr i64 %.0106.i, 32
  %15 = add nuw i64 %13, %14
  %16 = trunc i64 %15 to i32
  %17 = getelementptr inbounds %"class.cv::Vec", ptr %3, i64 %indvars.iv.i
  %18 = load i32, ptr %17, align 4
  %19 = and i32 %18, %16
  %20 = getelementptr inbounds i8, ptr %17, i64 4
  %21 = load i32, ptr %20, align 4
  %22 = add nsw i32 %19, %21
  %23 = and i64 %15, 4294967295
  %24 = mul nuw i64 %23, 4164903690
  %25 = lshr i64 %15, 32
  %26 = add nuw i64 %24, %25
  %27 = trunc i64 %26 to i32
  %28 = or disjoint i64 %indvars.iv.i, 1
  %29 = getelementptr inbounds %"class.cv::Vec", ptr %3, i64 %28
  %30 = load i32, ptr %29, align 4
  %31 = and i32 %30, %27
  %32 = getelementptr inbounds i8, ptr %29, i64 4
  %33 = load i32, ptr %32, align 4
  %34 = add nsw i32 %31, %33
  %35 = tail call i32 @llvm.smax.i32(i32 %22, i32 0)
  %36 = tail call i32 @llvm.umin.i32(i32 %35, i32 255)
  %37 = trunc nuw i32 %36 to i8
  %38 = getelementptr inbounds i8, ptr %0, i64 %indvars.iv.i
  store i8 %37, ptr %38, align 1
  %39 = tail call i32 @llvm.smax.i32(i32 %34, i32 0)
  %40 = tail call i32 @llvm.umin.i32(i32 %39, i32 255)
  %41 = trunc nuw i32 %40 to i8
  %42 = getelementptr inbounds i8, ptr %0, i64 %28
  store i8 %41, ptr %42, align 1
  %43 = and i64 %26, 4294967295
  %44 = mul nuw i64 %43, 4164903690
  %45 = lshr i64 %26, 32
  %46 = add nuw i64 %44, %45
  %47 = trunc i64 %46 to i32
  %48 = or disjoint i64 %indvars.iv.i, 2
  %49 = getelementptr inbounds %"class.cv::Vec", ptr %3, i64 %48
  %50 = load i32, ptr %49, align 4
  %51 = and i32 %50, %47
  %52 = getelementptr inbounds i8, ptr %49, i64 4
  %53 = load i32, ptr %52, align 4
  %54 = add nsw i32 %51, %53
  %55 = and i64 %46, 4294967295
  %56 = mul nuw i64 %55, 4164903690
  %57 = lshr i64 %46, 32
  %58 = add nuw i64 %56, %57
  %59 = trunc i64 %58 to i32
  %60 = or disjoint i64 %indvars.iv.i, 3
  %61 = getelementptr inbounds %"class.cv::Vec", ptr %3, i64 %60
  %62 = load i32, ptr %61, align 4
  %63 = and i32 %62, %59
  %64 = getelementptr inbounds i8, ptr %61, i64 4
  %65 = load i32, ptr %64, align 4
  %66 = add nsw i32 %63, %65
  %67 = tail call i32 @llvm.smax.i32(i32 %54, i32 0)
  %68 = tail call i32 @llvm.umin.i32(i32 %67, i32 255)
  %69 = trunc nuw i32 %68 to i8
  %70 = getelementptr inbounds i8, ptr %0, i64 %48
  store i8 %69, ptr %70, align 1
  %71 = tail call i32 @llvm.smax.i32(i32 %66, i32 0)
  %72 = tail call i32 @llvm.umin.i32(i32 %71, i32 255)
  %73 = trunc nuw i32 %72 to i8
  %74 = getelementptr inbounds i8, ptr %0, i64 %60
  store i8 %73, ptr %74, align 1
  %indvars.iv.next.i = add nuw nsw i64 %indvars.iv.i, 4
  %.not.i = icmp ugt i64 %indvars.iv.next.i, %9
  br i1 %.not.i, label %.loopexit.loopexit118.i, label %.lr.ph.i, !llvm.loop !87

.lr.ph111.i:                                      ; preds = %.lr.ph111.i, %.lr.ph111.preheader.i
  %indvars.iv124.i = phi i64 [ 0, %.lr.ph111.preheader.i ], [ %indvars.iv.next125.i, %.lr.ph111.i ]
  %.1110.i = phi i64 [ %7, %.lr.ph111.preheader.i ], [ %78, %.lr.ph111.i ]
  %75 = and i64 %.1110.i, 4294967295
  %76 = mul nuw i64 %75, 4164903690
  %77 = lshr i64 %.1110.i, 32
  %78 = add nuw i64 %76, %77
  %79 = trunc i64 %78 to i32
  %80 = getelementptr inbounds %"class.cv::Vec", ptr %3, i64 %indvars.iv124.i
  %81 = load i32, ptr %80, align 4
  %82 = and i32 %81, %79
  %83 = getelementptr inbounds i8, ptr %80, i64 4
  %84 = load i32, ptr %83, align 4
  %85 = add nsw i32 %82, %84
  %86 = ashr i32 %79, 8
  %87 = or disjoint i64 %indvars.iv124.i, 1
  %88 = getelementptr inbounds %"class.cv::Vec", ptr %3, i64 %87
  %89 = load i32, ptr %88, align 4
  %90 = and i32 %86, %89
  %91 = getelementptr inbounds i8, ptr %88, i64 4
  %92 = load i32, ptr %91, align 4
  %93 = add nsw i32 %90, %92
  %94 = tail call i32 @llvm.smax.i32(i32 %85, i32 0)
  %95 = tail call i32 @llvm.umin.i32(i32 %94, i32 255)
  %96 = trunc nuw i32 %95 to i8
  %97 = getelementptr inbounds i8, ptr %0, i64 %indvars.iv124.i
  store i8 %96, ptr %97, align 1
  %98 = tail call i32 @llvm.smax.i32(i32 %93, i32 0)
  %99 = tail call i32 @llvm.umin.i32(i32 %98, i32 255)
  %100 = trunc nuw i32 %99 to i8
  %101 = getelementptr inbounds i8, ptr %0, i64 %87
  store i8 %100, ptr %101, align 1
  %102 = ashr i32 %79, 16
  %103 = or disjoint i64 %indvars.iv124.i, 2
  %104 = getelementptr inbounds %"class.cv::Vec", ptr %3, i64 %103
  %105 = load i32, ptr %104, align 4
  %106 = and i32 %105, %102
  %107 = getelementptr inbounds i8, ptr %104, i64 4
  %108 = load i32, ptr %107, align 4
  %109 = add nsw i32 %106, %108
  %110 = ashr i32 %79, 24
  %111 = or disjoint i64 %indvars.iv124.i, 3
  %112 = getelementptr inbounds %"class.cv::Vec", ptr %3, i64 %111
  %113 = load i32, ptr %112, align 4
  %114 = and i32 %113, %110
  %115 = getelementptr inbounds i8, ptr %112, i64 4
  %116 = load i32, ptr %115, align 4
  %117 = add nsw i32 %114, %116
  %118 = tail call i32 @llvm.smax.i32(i32 %109, i32 0)
  %119 = tail call i32 @llvm.umin.i32(i32 %118, i32 255)
  %120 = trunc nuw i32 %119 to i8
  %121 = getelementptr inbounds i8, ptr %0, i64 %103
  store i8 %120, ptr %121, align 1
  %122 = tail call i32 @llvm.smax.i32(i32 %117, i32 0)
  %123 = tail call i32 @llvm.umin.i32(i32 %122, i32 255)
  %124 = trunc nuw i32 %123 to i8
  %125 = getelementptr inbounds i8, ptr %0, i64 %111
  store i8 %124, ptr %125, align 1
  %indvars.iv.next125.i = add nuw nsw i64 %indvars.iv124.i, 4
  %.not101.i = icmp ugt i64 %indvars.iv.next125.i, %11
  br i1 %.not101.i, label %.loopexit.loopexit.i, label %.lr.ph111.i, !llvm.loop !88

.loopexit.loopexit.i:                             ; preds = %.lr.ph111.i
  %126 = trunc nuw nsw i64 %indvars.iv.next125.i to i32
  br label %.loopexit.i

.loopexit.loopexit118.i:                          ; preds = %.lr.ph.i
  %127 = trunc nuw nsw i64 %indvars.iv.next.i to i32
  br label %.loopexit.i

.loopexit.i:                                      ; preds = %.loopexit.loopexit118.i, %.loopexit.loopexit.i, %.preheader.i, %.preheader102.i
  %.299.i = phi i32 [ 0, %.preheader.i ], [ 0, %.preheader102.i ], [ %126, %.loopexit.loopexit.i ], [ %127, %.loopexit.loopexit118.i ]
  %.2.i = phi i64 [ %7, %.preheader.i ], [ %7, %.preheader102.i ], [ %78, %.loopexit.loopexit.i ], [ %58, %.loopexit.loopexit118.i ]
  %128 = icmp slt i32 %.299.i, %1
  br i1 %128, label %.lr.ph116.preheader.i, label %_ZN2cvL9randBits_IhEEvPT_iPmPKNS_3VecIiLi2EEEb.exit

.lr.ph116.preheader.i:                            ; preds = %.loopexit.i
  %129 = zext nneg i32 %.299.i to i64
  %wide.trip.count.i = zext i32 %1 to i64
  br label %.lr.ph116.i

.lr.ph116.i:                                      ; preds = %.lr.ph116.i, %.lr.ph116.preheader.i
  %indvars.iv127.i = phi i64 [ %129, %.lr.ph116.preheader.i ], [ %indvars.iv.next128.i, %.lr.ph116.i ]
  %.3115.i = phi i64 [ %.2.i, %.lr.ph116.preheader.i ], [ %133, %.lr.ph116.i ]
  %130 = and i64 %.3115.i, 4294967295
  %131 = mul nuw i64 %130, 4164903690
  %132 = lshr i64 %.3115.i, 32
  %133 = add nuw i64 %131, %132
  %134 = trunc i64 %133 to i32
  %135 = getelementptr inbounds %"class.cv::Vec", ptr %3, i64 %indvars.iv127.i
  %136 = load i32, ptr %135, align 4
  %137 = and i32 %136, %134
  %138 = getelementptr inbounds i8, ptr %135, i64 4
  %139 = load i32, ptr %138, align 4
  %140 = add nsw i32 %137, %139
  %141 = tail call i32 @llvm.smax.i32(i32 %140, i32 0)
  %142 = tail call i32 @llvm.umin.i32(i32 %141, i32 255)
  %143 = trunc nuw i32 %142 to i8
  %144 = getelementptr inbounds i8, ptr %0, i64 %indvars.iv127.i
  store i8 %143, ptr %144, align 1
  %indvars.iv.next128.i = add nuw nsw i64 %indvars.iv127.i, 1
  %exitcond.not.i = icmp eq i64 %indvars.iv.next128.i, %wide.trip.count.i
  br i1 %exitcond.not.i, label %_ZN2cvL9randBits_IhEEvPT_iPmPKNS_3VecIiLi2EEEb.exit, label %.lr.ph116.i, !llvm.loop !89

_ZN2cvL9randBits_IhEEvPT_iPmPKNS_3VecIiLi2EEEb.exit: ; preds = %.lr.ph116.i, %.loopexit.i
  %.3.lcssa.i = phi i64 [ %.2.i, %.loopexit.i ], [ %133, %.lr.ph116.i ]
  store i64 %.3.lcssa.i, ptr %2, align 8
  ret void
}